Certificate:
    Data:
        Version: 3 (0x2)
        Serial Number:
            37:e9:36:92:2d:16:c9:b7:e6:6a:99:f0:27:f9:1a:ba
        Signature Algorithm: sha256WithRSAEncryption
        Issuer: CN=jerry
        Validity
            Not Before: Apr  8 13:29:00 2024 GMT
            Not After : Jul 12 13:29:00 2026 GMT
        Subject: CN=192.168.0.11
        Subject Public Key Info:
            Public Key Algorithm: rsaEncryption
                RSA Public-Key: (2048 bit)
                Modulus:
                    00:bf:db:f9:18:78:c2:7c:40:1e:74:35:5b:3c:4a:
                    1a:1d:e6:ff:6c:eb:0e:0c:dc:a8:47:d4:ad:85:1b:
                    22:51:3a:db:d9:89:96:24:f9:34:44:b8:b5:d7:6d:
                    50:ec:3f:ce:19:82:03:10:69:e3:0d:ec:b8:e0:c7:
                    91:8f:d5:88:20:17:88:b9:0c:70:41:2b:41:97:57:
                    5a:f6:f4:4b:fe:26:0a:c3:77:6c:5f:56:b9:32:3c:
                    a8:98:b5:6f:11:60:be:a0:b5:7e:01:77:d7:f6:ab:
                    ad:01:f1:d2:fa:31:3d:30:a0:d1:8b:00:51:63:14:
                    94:a6:90:d2:46:f8:3a:af:55:3a:04:99:5b:29:c1:
                    1b:08:98:02:c2:64:22:ac:75:06:94:8c:89:8b:d0:
                    75:42:d9:3e:a8:47:31:eb:63:fb:f2:bf:3a:d3:e3:
                    30:35:d9:48:a8:c6:33:18:e8:50:38:38:9f:ea:8a:
                    8c:fb:e5:25:92:1b:2d:04:80:7a:27:c4:cf:77:72:
                    7c:eb:f5:f1:93:49:80:b5:e1:63:8d:3e:1f:1b:30:
                    d5:6d:2b:82:be:13:95:bc:ac:66:16:3c:cc:0b:b3:
                    80:b0:2a:28:9c:1b:1b:be:35:50:27:c3:dc:79:66:
                    ed:0c:fe:3d:69:e0:bc:94:08:e4:cd:70:fd:3b:52:
                    a5:4b
                Exponent: 65537 (0x10001)
        X509v3 extensions:
            X509v3 Basic Constraints: 
                CA:FALSE
            X509v3 Subject Key Identifier: 
                BB:49:39:98:BE:BC:C5:EF:02:2F:88:64:F7:3B:D1:EA:CD:25:97:45
            X509v3 Authority Key Identifier: 
                keyid:38:07:C0:F8:C3:80:C4:0C:0A:08:D1:3D:05:A7:8A:EF:AB:60:8C:17
                DirName:/CN=jerry
                serial:52:8C:0B:36:C7:9A:79:DB:0D:48:22:AD:F7:33:B3:1A:DF:C1:08:F0

            X509v3 Extended Key Usage: 
                TLS Web Server Authentication
            X509v3 Key Usage: 
                Digital Signature, Key Encipherment
            X509v3 Subject Alternative Name: 
                IP Address:192.168.0.11
    Signature Algorithm: sha256WithRSAEncryption
         8e:e9:38:2f:42:f5:cc:e5:bd:66:4f:91:0c:65:8b:83:51:ea:
         d4:ea:79:ea:8f:fd:fe:0c:22:c7:c3:b8:08:08:71:ff:38:ff:
         5c:e8:5d:d7:3b:d1:ae:22:cf:93:05:50:db:a3:72:90:e5:17:
         16:91:d1:28:77:4d:99:c7:78:00:21:c1:d1:b2:09:c6:1c:b5:
         c0:c0:8f:6e:c8:4d:1f:18:06:06:74:01:b9:18:43:5d:36:57:
         8b:e2:98:72:86:ec:a6:60:f2:f1:5e:6f:e4:be:b9:be:e0:23:
         88:93:7f:c8:f6:c8:ef:a2:61:6d:88:6b:aa:5b:71:f6:69:84:
         6b:4b:11:eb:bb:cc:34:c8:24:cf:b0:e7:34:54:a6:4e:44:da:
         ce:27:12:c1:64:44:22:ba:d3:cf:b5:c0:57:fa:2b:59:43:33:
         5c:eb:c4:14:d3:00:34:9e:62:e6:fa:18:fe:bf:54:33:b4:46:
         b5:ae:d8:57:cb:da:3b:4f:a8:f4:2e:17:bf:0a:ca:0a:46:87:
         c3:8d:71:48:95:6b:bd:57:63:f2:5c:4f:62:49:5b:e4:e0:c2:
         8e:b1:05:4c:84:47:44:eb:2a:ef:0d:4f:b7:a5:28:9f:d6:51:
         a0:05:fc:43:ae:f0:f6:56:db:99:39:3e:23:2d:d7:b3:16:9f:
         b7:a3:f4:cf
-----BEGIN CERTIFICATE-----
MIIDXzCCAkegAwIBAgIQN+k2ki0WybfmapnwJ/kaujANBgkqhkiG9w0BAQsFADAQ
MQ4wDAYDVQQDDAVqZXJyeTAeFw0yNDA0MDgxMzI5MDBaFw0yNjA3MTIxMzI5MDBa
MBcxFTATBgNVBAMMDDE5Mi4xNjguMC4xMTCCASIwDQYJKoZIhvcNAQEBBQADggEP
ADCCAQoCggEBAL/b+Rh4wnxAHnQ1WzxKGh3m/2zrDgzcqEfUrYUbIlE629mJliT5
NES4tddtUOw/zhmCAxBp4w3suODHkY/ViCAXiLkMcEErQZdXWvb0S/4mCsN3bF9W
uTI8qJi1bxFgvqC1fgF31/arrQHx0voxPTCg0YsAUWMUlKaQ0kb4Oq9VOgSZWynB
GwiYAsJkIqx1BpSMiYvQdULZPqhHMetj+/K/OtPjMDXZSKjGMxjoUDg4n+qKjPvl
JZIbLQSAeifEz3dyfOv18ZNJgLXhY40+Hxsw1W0rgr4TlbysZhY8zAuzgLAqKJwb
G741UCfD3Hlm7Qz+PWngvJQI5M1w/TtSpUsCAwEAAaOBrTCBqjAJBgNVHRMEAjAA
MB0GA1UdDgQWBBS7STmYvrzF7wIviGT3O9HqzSWXRTBLBgNVHSMERDBCgBQ4B8D4
w4DEDAoI0T0Fp4rvq2CMF6EUpBIwEDEOMAwGA1UEAwwFamVycnmCFFKMCzbHmnnb
DUgirfczsxrfwQjwMBMGA1UdJQQMMAoGCCsGAQUFBwMBMAsGA1UdDwQEAwIFoDAP
BgNVHREECDAGhwTAqAALMA0GCSqGSIb3DQEBCwUAA4IBAQCO6TgvQvXM5b1mT5EM
ZYuDUerU6nnqj/3+DCLHw7gICHH/OP9c6F3XO9GuIs+TBVDbo3KQ5RcWkdEod02Z
x3gAIcHRsgnGHLXAwI9uyE0fGAYGdAG5GENdNleL4phyhuymYPLxXm/kvrm+4COI
k3/I9sjvomFtiGuqW3H2aYRrSxHru8w0yCTPsOc0VKZORNrOJxLBZEQiutPPtcBX
+itZQzNc68QU0wA0nmLm+hj+v1QztEa1rthXy9o7T6j0Lhe/CsoKRofDjXFIlWu9
V2PyXE9iSVvk4MKOsQVMhEdE6yrvDU+3pSif1lGgBfxDrvD2VtuZOT4jLdezFp+3
o/TP
-----END CERTIFICATE-----
